; Function Attrs: mustprogress uwtable
define hidden void @_ZN4cvc58internal6theory2uf39CombinedCardinalityConstraintOpTypeRule11computeTypeEPNS0_11NodeManagerENS0_12NodeTemplateILb0EEEbPSo(ptr dead_on_unwind noalias writable sret(%"class.cvc5::internal::TypeNode") align 8 %0, ptr noundef %1, ptr noundef readonly captures(none) %2, i1 noundef zeroext %3, ptr noundef %4) local_unnamed_addr #3 align 2 {
  br i1 %3, label %6, label %_ZN4cvc58internal8TypeNode4nullEv.exit

6:                                                ; preds = %5
  %7 = load ptr, ptr %2, align 8, !tbaa !16
  %8 = tail call noundef nonnull align 8 dereferenceable(16) ptr @_ZNK4cvc58internal4expr9NodeValue8getConstINS0_29CombinedCardinalityConstraintEEERKT_v(ptr noundef nonnull align 8 dereferenceable(24) %7)
  %9 = tail call noundef nonnull align 8 dereferenceable(16) ptr @_ZNK4cvc58internal29CombinedCardinalityConstraint13getUpperBoundEv(ptr noundef nonnull align 8 dereferenceable(16) %8)
  %10 = tail call noundef i32 @_ZNK4cvc58internal7Integer3sgnEv(ptr noundef nonnull align 8 dereferenceable(16) %9)
  %.not.not = icmp eq i32 %10, 1
  br i1 %.not.not, label %_ZN4cvc58internal8TypeNode4nullEv.exit, label %11

11:                                               ; preds = %6
  %.not6 = icmp eq ptr %4, null
  br i1 %.not6, label %14, label %12

12:                                               ; preds = %11
  %13 = tail call noundef nonnull align 8 dereferenceable(8) ptr @_ZSt16__ostream_insertIcSt11char_traitsIcEERSt13basic_ostreamIT_T0_ES6_PKS3_l(ptr noundef nonnull align 8 dereferenceable(8) %4, ptr noundef nonnull @.str.11, i64 noundef 48)
  br label %14

14:                                               ; preds = %12, %11
  tail call void @llvm.experimental.noalias.scope.decl(metadata !74)
  %15 = load ptr, ptr @_ZN4cvc58internal8TypeNode6s_nullE, align 8, !tbaa !6, !noalias !74
  store ptr %15, ptr %0, align 8, !tbaa !6, !alias.scope !74
  %16 = load i64, ptr %15, align 8, !noalias !74
  %17 = lshr i64 %16, 40
  %18 = trunc nuw nsw i64 %17 to i32
  %19 = and i32 %18, 1048575
  %20 = icmp samesign ult i32 %19, 1048574
  br i1 %20, label %21, label %26, !prof !12

21:                                               ; preds = %14
  %22 = add i64 %16, 1099511627776
  %23 = and i64 %22, 1152920405095219200
  %24 = and i64 %16, -1152920405095219201
  %25 = or disjoint i64 %23, %24
  store i64 %25, ptr %15, align 8, !noalias !74
  br label %_ZN4cvc58internal8TypeNode4nullEv.exit.thread

26:                                               ; preds = %14
  %27 = icmp eq i32 %19, 1048574
  br i1 %27, label %28, label %_ZN4cvc58internal8TypeNode4nullEv.exit.thread, !prof !13

28:                                               ; preds = %26
  %29 = or i64 %16, 1152920405095219200
  store i64 %29, ptr %15, align 8, !noalias !74
  tail call void @_ZN4cvc58internal4expr9NodeValue20markRefCountMaxedOutEv(ptr noundef nonnull align 8 dereferenceable(24) %15), !noalias !74
  br label %_ZN4cvc58internal8TypeNode4nullEv.exit.thread

_ZN4cvc58internal8TypeNode4nullEv.exit:           ; preds = %6, %5
  tail call void @_ZN4cvc58internal11NodeManager19builtinOperatorTypeEv(ptr dead_on_unwind writable sret(%"class.cvc5::internal::TypeNode") align 8 %0, ptr noundef nonnull align 8 dereferenceable(3560) %1)
  br label %_ZN4cvc58internal8TypeNode4nullEv.exit.thread

_ZN4cvc58internal8TypeNode4nullEv.exit.thread:    ; preds = %21, %26, %28, %_ZN4cvc58internal8TypeNode4nullEv.exit
  ret void
}